Certificate:
    Data:
        Version: 3 (0x2)
        Serial Number: 4096 (0x1000)
    Signature Algorithm: md5WithRSAEncryption
        Issuer: C=US, ST=UTAH, L=SALT LAKE CITY, O=MSD, OU=MSD, CN=CA/emailAddress=bradenpotter12@gmail.com
        Validity
            Not Before: Apr  2 01:24:38 2021 GMT
            Not After : Apr  2 01:24:38 2022 GMT
        Subject: C=US, ST=UTAH, O=MSD, OU=MSD, CN=server/emailAddress=bradenpotter12@gmail.com
        Subject Public Key Info:
            Public Key Algorithm: rsaEncryption
                Public-Key: (4096 bit)
                Modulus:
                    00:eb:f8:60:79:b3:d1:c4:cb:3f:ad:88:8b:e5:bf:
                    fd:40:7a:c8:e3:37:c9:13:17:bd:cd:0a:cf:41:f5:
                    74:e1:16:ae:cc:7b:54:b8:a3:d8:68:02:ac:54:55:
                    09:cf:6a:a2:57:36:61:9c:07:d3:b5:49:46:56:fb:
                    2b:33:7f:de:73:eb:f5:17:75:f4:fa:9e:62:fd:1b:
                    dd:6f:34:2e:fd:b4:a9:bc:87:8b:49:57:dd:45:e8:
                    4c:2f:75:84:e1:ff:0b:33:68:f2:b9:49:f7:6a:54:
                    72:0b:5e:5a:00:75:14:6b:f8:a2:04:9b:34:1c:db:
                    8c:64:b4:3a:a5:c9:fd:87:04:c6:b4:21:b4:b3:42:
                    f1:10:b1:f5:fd:1c:9b:32:6d:82:11:62:30:d9:d8:
                    6c:2e:02:1f:bf:83:1d:6c:a3:26:29:c3:00:27:04:
                    fa:01:f7:df:f4:12:0d:d6:5a:0b:55:60:a5:56:f8:
                    07:87:ad:9d:10:fc:82:aa:02:c4:59:d9:20:60:5c:
                    ed:78:bf:f0:82:7d:c1:e3:84:34:7e:16:73:81:5e:
                    3e:ef:10:47:f6:b9:cf:2c:38:c8:83:17:3d:20:38:
                    8b:6f:0a:5f:98:19:d2:d9:7e:e4:9f:c0:1b:09:f0:
                    bc:61:cd:7e:33:e4:07:2c:31:3f:9b:93:21:da:c3:
                    b3:00:2f:30:d5:39:8f:9c:e6:3c:8b:a2:6b:24:3f:
                    3f:bb:a4:ba:67:03:e9:a6:ba:61:2d:a1:c2:ae:49:
                    ac:11:31:09:06:a8:c0:75:da:66:4e:b4:bb:48:e0:
                    06:79:13:70:18:cc:f1:64:f9:52:25:78:5d:97:df:
                    02:db:29:90:1d:54:3d:6e:a5:8a:83:af:86:73:bd:
                    3f:02:cd:d4:ad:b4:00:8d:be:2b:e2:68:a8:24:5b:
                    4c:0e:4b:4d:95:eb:31:c0:7d:56:ac:44:65:ee:e6:
                    57:45:b0:5b:7e:8c:dc:1f:d9:13:76:1c:f0:e2:1f:
                    da:a2:5d:ca:09:75:55:f9:d0:0f:ea:38:77:c6:51:
                    2b:99:fa:d2:1b:46:17:d1:f8:60:f2:a0:dd:f4:21:
                    63:15:73:6e:d4:9d:8c:e7:56:77:56:a8:60:46:a0:
                    ff:f1:1a:a5:98:6d:64:d8:03:aa:11:fb:67:7f:54:
                    8b:55:88:85:8e:e8:47:fb:41:8f:2e:15:44:da:50:
                    04:f5:07:bd:2b:64:a1:be:46:9f:e7:fe:2d:91:98:
                    1b:49:8a:8b:76:21:92:01:b9:e5:9b:6f:bb:eb:8d:
                    fe:bd:bf:ff:84:19:ea:2e:6a:36:9b:26:20:65:58:
                    0b:dd:3d:ba:6b:05:ec:9d:bf:66:03:37:d7:19:68:
                    c1:12:47
                Exponent: 65537 (0x10001)
        X509v3 extensions:
            X509v3 Basic Constraints: 
                CA:FALSE
            Netscape Comment: 
                OpenSSL Generated Certificate
            X509v3 Subject Key Identifier: 
                68:42:18:5E:EF:83:CE:BA:A8:B6:ED:E5:14:F4:B1:A6:01:08:E4:2D
            X509v3 Authority Key Identifier: 
                DirName:/C=US/ST=UTAH/L=SALT LAKE CITY/O=MSD/OU=MSD/CN=CA/emailAddress=bradenpotter12@gmail.com
                serial:91:50:17:95:51:56:3F:AD

    Signature Algorithm: md5WithRSAEncryption
         4d:1d:88:fb:b1:31:0b:8a:f1:da:1f:b4:23:fa:ab:8a:a0:64:
         57:3d:55:32:1c:46:e7:51:75:eb:84:01:0c:77:30:f2:c8:fd:
         02:27:9d:a9:35:6c:ea:b8:6f:c2:ea:7a:70:92:bc:2e:ef:76:
         2d:a0:c8:29:4c:0a:11:80:dd:cb:ae:b9:41:e4:fe:2f:ae:8a:
         5d:8c:09:59:f3:27:92:0e:25:3a:17:db:eb:b4:51:3e:80:aa:
         2b:88:42:ef:b2:0c:7d:ef:92:60:da:5f:eb:e3:88:0f:65:f9:
         fb:c0:a4:b9:7d:65:0f:de:8e:b4:8c:fe:2f:f4:8c:ee:24:99:
         4b:79:5c:8b:48:c8:e9:f5:5a:c7:9b:a2:bb:d5:6a:b5:02:f7:
         ab:77:a7:0b:d7:44:75:b5:12:32:c3:17:55:fc:53:b7:7b:6c:
         bd:99:82:b8:7e:94:89:83:12:e7:45:25:83:ea:f3:bf:2b:7f:
         ce:23:e9:92:bd:43:5a:f7:a1:a4:52:a7:a5:f1:50:9c:ac:1a:
         33:d7:69:90:79:eb:91:94:85:e9:f1:bc:93:fa:c9:7b:d5:b1:
         e6:9b:32:7f:83:fd:68:25:e1:8f:f2:85:97:1f:00:37:e3:ae:
         90:2b:06:2a:95:7c:70:82:a3:f5:8e:64:ff:eb:ae:0c:fd:3d:
         aa:e5:95:26:c0:f3:83:fb:a7:9e:55:7b:e8:b3:e6:0c:c0:80:
         f8:46:76:4f:ae:65:cb:2e:47:26:32:18:b7:6d:28:fa:9f:ce:
         52:83:ce:9c:70:78:ff:84:a4:62:4a:c9:40:42:de:c5:64:80:
         ad:63:4f:27:27:0c:04:bd:e0:09:f7:97:5e:18:f9:56:e2:f1:
         48:2a:30:08:f3:c2:74:be:13:2d:bc:82:ff:2f:51:05:9e:2b:
         41:21:bb:6c:ee:75:46:db:ad:84:a1:13:25:bd:fe:74:5e:97:
         83:60:10:df:b2:f4:64:e8:04:63:2a:33:e4:17:91:58:a1:1c:
         24:7b:66:80:d0:20:3e:3e:f3:16:4a:61:ab:df:8d:50:36:80:
         2b:37:60:ab:ac:e0:e9:68:34:1d:31:65:b1:d0:a2:df:88:93:
         37:10:24:b4:8e:f4:bf:3e:1f:31:25:71:ca:03:94:64:89:d8:
         10:75:89:e7:c1:0b:ac:83:29:20:ed:01:bc:cd:39:91:51:33:
         35:5b:e7:d3:54:24:21:54:07:73:16:bf:77:e2:49:fd:9d:51:
         59:90:43:8b:24:56:7d:76:8e:5d:a6:3b:89:42:a5:44:a6:96:
         4d:03:3f:93:06:e3:d5:43:a9:4d:e7:03:b9:ba:0d:58:16:0d:
         96:f7:23:02:e9:53:d1:69
-----BEGIN CERTIFICATE-----
MIIGfTCCBGWgAwIBAgICEAAwDQYJKoZIhvcNAQEEBQAwgYcxCzAJBgNVBAYTAlVT
MQ0wCwYDVQQIDARVVEFIMRcwFQYDVQQHDA5TQUxUIExBS0UgQ0lUWTEMMAoGA1UE
CgwDTVNEMQwwCgYDVQQLDANNU0QxCzAJBgNVBAMMAkNBMScwJQYJKoZIhvcNAQkB
FhhicmFkZW5wb3R0ZXIxMkBnbWFpbC5jb20wHhcNMjEwNDAyMDEyNDM4WhcNMjIw
NDAyMDEyNDM4WjByMQswCQYDVQQGEwJVUzENMAsGA1UECAwEVVRBSDEMMAoGA1UE
CgwDTVNEMQwwCgYDVQQLDANNU0QxDzANBgNVBAMMBnNlcnZlcjEnMCUGCSqGSIb3
DQEJARYYYnJhZGVucG90dGVyMTJAZ21haWwuY29tMIICIjANBgkqhkiG9w0BAQEF
AAOCAg8AMIICCgKCAgEA6/hgebPRxMs/rYiL5b/9QHrI4zfJExe9zQrPQfV04Rau
zHtUuKPYaAKsVFUJz2qiVzZhnAfTtUlGVvsrM3/ec+v1F3X0+p5i/RvdbzQu/bSp
vIeLSVfdRehML3WE4f8LM2jyuUn3alRyC15aAHUUa/iiBJs0HNuMZLQ6pcn9hwTG
tCG0s0LxELH1/RybMm2CEWIw2dhsLgIfv4MdbKMmKcMAJwT6Afff9BIN1loLVWCl
VvgHh62dEPyCqgLEWdkgYFzteL/wgn3B44Q0fhZzgV4+7xBH9rnPLDjIgxc9IDiL
bwpfmBnS2X7kn8AbCfC8Yc1+M+QHLDE/m5Mh2sOzAC8w1TmPnOY8i6JrJD8/u6S6
ZwPpprphLaHCrkmsETEJBqjAddpmTrS7SOAGeRNwGMzxZPlSJXhdl98C2ymQHVQ9
bqWKg6+Gc70/As3UrbQAjb4r4mioJFtMDktNlesxwH1WrERl7uZXRbBbfozcH9kT
dhzw4h/aol3KCXVV+dAP6jh3xlErmfrSG0YX0fhg8qDd9CFjFXNu1J2M51Z3Vqhg
RqD/8RqlmG1k2AOqEftnf1SLVYiFjuhH+0GPLhVE2lAE9Qe9K2Shvkaf5/4tkZgb
SYqLdiGSAbnlm2+7643+vb//hBnqLmo2myYgZVgL3T26awXsnb9mAzfXGWjBEkcC
AwEAAaOCAQUwggEBMAkGA1UdEwQCMAAwLAYJYIZIAYb4QgENBB8WHU9wZW5TU0wg
R2VuZXJhdGVkIENlcnRpZmljYXRlMB0GA1UdDgQWBBRoQhhe74POuqi27eUU9LGm
AQjkLTCBpgYDVR0jBIGeMIGboYGNpIGKMIGHMQswCQYDVQQGEwJVUzENMAsGA1UE
CAwEVVRBSDEXMBUGA1UEBwwOU0FMVCBMQUtFIENJVFkxDDAKBgNVBAoMA01TRDEM
MAoGA1UECwwDTVNEMQswCQYDVQQDDAJDQTEnMCUGCSqGSIb3DQEJARYYYnJhZGVu
cG90dGVyMTJAZ21haWwuY29tggkAkVAXlVFWP60wDQYJKoZIhvcNAQEEBQADggIB
AE0diPuxMQuK8doftCP6q4qgZFc9VTIcRudRdeuEAQx3MPLI/QInnak1bOq4b8Lq
enCSvC7vdi2gyClMChGA3cuuuUHk/i+uil2MCVnzJ5IOJToX2+u0UT6AqiuIQu+y
DH3vkmDaX+vjiA9l+fvApLl9ZQ/ejrSM/i/0jO4kmUt5XItIyOn1WseborvVarUC
96t3pwvXRHW1EjLDF1X8U7d7bL2Zgrh+lImDEudFJYPq878rf84j6ZK9Q1r3oaRS
p6XxUJysGjPXaZB565GUhenxvJP6yXvVseabMn+D/Wgl4Y/yhZcfADfjrpArBiqV
fHCCo/WOZP/rrgz9ParllSbA84P7p55Ve+iz5gzAgPhGdk+uZcsuRyYyGLdtKPqf
zlKDzpxweP+EpGJKyUBC3sVkgK1jTycnDAS94An3l14Y+Vbi8UgqMAjzwnS+Ey28
gv8vUQWeK0Ehu2zudUbbrYShEyW9/nRel4NgEN+y9GToBGMqM+QXkVihHCR7ZoDQ
ID4+8xZKYavfjVA2gCs3YKus4OloNB0xZbHQot+IkzcQJLSO9L8+HzElccoDlGSJ
2BB1iefBC6yDKSDtAbzNOZFRMzVb59NUJCFUB3MWv3fiSf2dUVmQQ4skVn12jl2m
O4lCpUSmlk0DP5MG49VDqU3nA7m6DVgWDZb3IwLpU9Fp
-----END CERTIFICATE-----
